target datalayout = "e-m:e-p270:32:32-p271:32:32-p272:64:64-i64:64-i128:128-f80:128-n8:16:32:64-S128"
target triple = "x86_64-pc-linux-gnu"

%union.pthread_mutex_t = type { %struct.__pthread_mutex_s }
%struct.__pthread_mutex_s = type { i32, i32, i32, i32, i32, i16, i16, %struct.__pthread_internal_list }
%struct.__pthread_internal_list = type { ptr, ptr }
%struct.pmix_tma = type { ptr, ptr, ptr, ptr, ptr, ptr, ptr, ptr }
%struct.event = type { %struct.event_callback, %union.anon.0, i32, ptr, %union.anon.2, i16, i16, %struct.timeval }
%struct.event_callback = type { %struct.anon, i16, i8, i8, %union.anon, ptr }
%struct.anon = type { ptr, ptr }
%union.anon = type { ptr }
%union.anon.0 = type { %struct.anon.1 }
%struct.anon.1 = type { ptr, ptr }
%union.anon.2 = type { %struct.anon.3 }
%struct.anon.3 = type { %struct.anon.4, %struct.timeval }
%struct.anon.4 = type { ptr, ptr }
%struct.timeval = type { i64, i64 }
%struct.pmix_object_t = type { %union.pthread_mutex_t, ptr, i32, %struct.pmix_tma }
%struct.pmix_list_item_t = type { %struct.pmix_object_t, ptr, ptr, i32 }
%struct.pmix_listener_t = type { %struct.pmix_list_item_t, %struct.event, i8, i16, i32, ptr, ptr, i32, i8, i32, i8, i32, ptr }

; Function Attrs: nounwind uwtable
define internal void @ldes(ptr noundef %0) #0 {
  %2 = alloca ptr, align 8
  store ptr %0, ptr %2, align 8, !tbaa !150
  %3 = load ptr, ptr %2, align 8, !tbaa !150
  %4 = getelementptr inbounds nuw %struct.pmix_listener_t, ptr %3, i32 0, i32 4
  %5 = load i32, ptr %4, align 4, !tbaa !153
  %6 = icmp sle i32 0, %5
  br i1 %6, label %7, label %26

7:                                                ; preds = %1
  br label %8

8:                                                ; preds = %7
  %9 = load ptr, ptr %2, align 8, !tbaa !150
  %10 = getelementptr inbounds nuw %struct.pmix_listener_t, ptr %9, i32 0, i32 4
  %11 = load i32, ptr %10, align 4, !tbaa !153
  %12 = icmp sle i32 0, %11
  br i1 %12, label %13, label %24

13:                                               ; preds = %8
  %14 = load ptr, ptr %2, align 8, !tbaa !150
  %15 = getelementptr inbounds nuw %struct.pmix_listener_t, ptr %14, i32 0, i32 4
  %16 = load i32, ptr %15, align 4, !tbaa !153
  %17 = call i32 @shutdown(i32 noundef %16, i32 noundef 2) #12
  %18 = load ptr, ptr %2, align 8, !tbaa !150
  %19 = getelementptr inbounds nuw %struct.pmix_listener_t, ptr %18, i32 0, i32 4
  %20 = load i32, ptr %19, align 4, !tbaa !153
  %21 = call i32 @close(i32 noundef %20)
  %22 = load ptr, ptr %2, align 8, !tbaa !150
  %23 = getelementptr inbounds nuw %struct.pmix_listener_t, ptr %22, i32 0, i32 4
  store i32 -1, ptr %23, align 4, !tbaa !153
  br label %24

24:                                               ; preds = %13, %8
  br label %25

25:                                               ; preds = %24
  br label %26

26:                                               ; preds = %25, %1
  %27 = load ptr, ptr %2, align 8, !tbaa !150
  %28 = getelementptr inbounds nuw %struct.pmix_listener_t, ptr %27, i32 0, i32 5
  %29 = load ptr, ptr %28, align 8, !tbaa !154
  %30 = icmp ne ptr null, %29
  br i1 %30, label %31, label %35

31:                                               ; preds = %26
  %32 = load ptr, ptr %2, align 8, !tbaa !150
  %33 = getelementptr inbounds nuw %struct.pmix_listener_t, ptr %32, i32 0, i32 5
  %34 = load ptr, ptr %33, align 8, !tbaa !154
  call void @free(ptr noundef %34) #12
  br label %35

35:                                               ; preds = %31, %26
  %36 = load ptr, ptr %2, align 8, !tbaa !150
  %37 = getelementptr inbounds nuw %struct.pmix_listener_t, ptr %36, i32 0, i32 6
  %38 = load ptr, ptr %37, align 8, !tbaa !155
  %39 = icmp ne ptr null, %38
  br i1 %39, label %40, label %44

40:                                               ; preds = %35
  %41 = load ptr, ptr %2, align 8, !tbaa !150
  %42 = getelementptr inbounds nuw %struct.pmix_listener_t, ptr %41, i32 0, i32 6
  %43 = load ptr, ptr %42, align 8, !tbaa !155
  call void @free(ptr noundef %43) #12
  br label %44

44:                                               ; preds = %40, %35
  ret void
}