; Function Attrs: nounwind uwtable
define internal void @ldes(ptr noundef captures(none) %0) #0 {
  %2 = getelementptr inbounds nuw i8, ptr %0, i64 276
  %3 = load i32, ptr %2, align 4, !tbaa !142
  %4 = icmp sgt i32 %3, -1
  br i1 %4, label %5, label %9

5:                                                ; preds = %1
  %6 = tail call i32 @shutdown(i32 noundef %3, i32 noundef 2) #16
  %7 = load i32, ptr %2, align 4, !tbaa !142
  %8 = tail call i32 @close(i32 noundef %7) #16
  store i32 -1, ptr %2, align 4, !tbaa !142
  br label %9

9:                                                ; preds = %5, %1
  %10 = getelementptr inbounds nuw i8, ptr %0, i64 280
  %11 = load ptr, ptr %10, align 8, !tbaa !146
  %.not = icmp eq ptr %11, null
  br i1 %.not, label %13, label %12

12:                                               ; preds = %9
  tail call void @free(ptr noundef nonnull %11) #16
  br label %13

13:                                               ; preds = %12, %9
  %14 = getelementptr inbounds nuw i8, ptr %0, i64 288
  %15 = load ptr, ptr %14, align 8, !tbaa !147
  %.not11 = icmp eq ptr %15, null
  br i1 %.not11, label %17, label %16

16:                                               ; preds = %13
  tail call void @free(ptr noundef nonnull %15) #16
  br label %17

17:                                               ; preds = %16, %13
  ret void
}